target datalayout = "e-m:e-p270:32:32-p271:32:32-p272:64:64-i64:64-i128:128-f80:128-n8:16:32:64-S128"
target triple = "x86_64-pc-linux-gnu"

%struct.string_int_pair_st = type { ptr, i32 }

@.str.72 = private unnamed_addr constant [8 x i8] c"unknown\00", align 1
@.str.73 = private unnamed_addr constant [39 x i8] c"TLS %s extension \22%s\22 (id=%d), len=%d\0A\00", align 1
@.str.74 = private unnamed_addr constant [7 x i8] c"server\00", align 1
@.str.75 = private unnamed_addr constant [7 x i8] c"client\00", align 1

; Function Attrs: nounwind uwtable
define internal ptr @lookup(i32 noundef %0, ptr noundef %1, ptr noundef %2) #0 {
  %4 = alloca ptr, align 8
  %5 = alloca i32, align 4
  %6 = alloca ptr, align 8
  %7 = alloca ptr, align 8
  store i32 %0, ptr %5, align 4, !tbaa !3
  store ptr %1, ptr %6, align 8, !tbaa !59
  store ptr %2, ptr %7, align 8, !tbaa !21
  br label %8

8:                                                ; preds = %24, %3
  %9 = load ptr, ptr %6, align 8, !tbaa !59
  %10 = getelementptr inbounds nuw %struct.string_int_pair_st, ptr %9, i32 0, i32 0
  %11 = load ptr, ptr %10, align 8, !tbaa !61
  %12 = icmp ne ptr %11, null
  br i1 %12, label %13, label %27

13:                                               ; preds = %8
  %14 = load ptr, ptr %6, align 8, !tbaa !59
  %15 = getelementptr inbounds nuw %struct.string_int_pair_st, ptr %14, i32 0, i32 1
  %16 = load i32, ptr %15, align 8, !tbaa !63
  %17 = load i32, ptr %5, align 4, !tbaa !3
  %18 = icmp eq i32 %16, %17
  br i1 %18, label %19, label %23

19:                                               ; preds = %13
  %20 = load ptr, ptr %6, align 8, !tbaa !59
  %21 = getelementptr inbounds nuw %struct.string_int_pair_st, ptr %20, i32 0, i32 0
  %22 = load ptr, ptr %21, align 8, !tbaa !61
  store ptr %22, ptr %4, align 8
  br label %29

23:                                               ; preds = %13
  br label %24

24:                                               ; preds = %23
  %25 = load ptr, ptr %6, align 8, !tbaa !59
  %26 = getelementptr inbounds nuw %struct.string_int_pair_st, ptr %25, i32 1
  store ptr %26, ptr %6, align 8, !tbaa !59
  br label %8, !llvm.loop !64

27:                                               ; preds = %8
  %28 = load ptr, ptr %7, align 8, !tbaa !21
  store ptr %28, ptr %4, align 8
  br label %29

29:                                               ; preds = %27, %19
  %30 = load ptr, ptr %4, align 8
  ret ptr %30
}

; Function Attrs: nounwind uwtable
define void @tlsext_cb(ptr noundef %0, i32 noundef %1, i32 noundef %2, ptr noundef %3, i32 noundef %4, ptr noundef %5) #0 {
  %7 = alloca ptr, align 8
  %8 = alloca i32, align 4
  %9 = alloca i32, align 4
  %10 = alloca ptr, align 8
  %11 = alloca i32, align 4
  %12 = alloca ptr, align 8
  %13 = alloca ptr, align 8
  %14 = alloca ptr, align 8
  store ptr %0, ptr %7, align 8, !tbaa !27
  store i32 %1, ptr %8, align 4, !tbaa !3
  store i32 %2, ptr %9, align 4, !tbaa !3
  store ptr %3, ptr %10, align 8, !tbaa !21
  store i32 %4, ptr %11, align 4, !tbaa !3
  store ptr %5, ptr %12, align 8, !tbaa !57
  call void @llvm.lifetime.start.p0(i64 8, ptr %13) #10
  %15 = load ptr, ptr %12, align 8, !tbaa !57
  store ptr %15, ptr %13, align 8, !tbaa !14
  call void @llvm.lifetime.start.p0(i64 8, ptr %14) #10
  %16 = load i32, ptr %9, align 4, !tbaa !3
  %17 = call ptr @lookup(i32 noundef %16, ptr noundef @tlsext_types, ptr noundef @.str.72)
  store ptr %17, ptr %14, align 8, !tbaa !21
  %18 = load ptr, ptr %13, align 8, !tbaa !14
  %19 = load i32, ptr %8, align 4, !tbaa !3
  %20 = icmp ne i32 %19, 0
  %21 = select i1 %20, ptr @.str.74, ptr @.str.75
  %22 = load ptr, ptr %14, align 8, !tbaa !21
  %23 = load i32, ptr %9, align 4, !tbaa !3
  %24 = load i32, ptr %11, align 4, !tbaa !3
  %25 = call i32 (ptr, ptr, ...) @BIO_printf(ptr noundef %18, ptr noundef @.str.73, ptr noundef %21, ptr noundef %22, i32 noundef %23, i32 noundef %24)
  %26 = load ptr, ptr %13, align 8, !tbaa !14
  %27 = load ptr, ptr %10, align 8, !tbaa !21
  %28 = load i32, ptr %11, align 4, !tbaa !3
  %29 = call i32 @BIO_dump(ptr noundef %26, ptr noundef %27, i32 noundef %28)
  %30 = load ptr, ptr %13, align 8, !tbaa !14
  %31 = call i64 @BIO_ctrl(ptr noundef %30, i32 noundef 11, i64 noundef 0, ptr noundef null)
  call void @llvm.lifetime.end.p0(i64 8, ptr %14) #10
  call void @llvm.lifetime.end.p0(i64 8, ptr %13) #10
  ret void
}