; Function Attrs: nounwind uwtable
define void @tlsext_cb(ptr noundef readnone captures(none) %0, i32 noundef %1, i32 noundef %2, ptr noundef %3, i32 noundef %4, ptr noundef %5) local_unnamed_addr #0 {
  %7 = icmp eq i32 %2, 0
  br i1 %7, label %lookup.exit, label %.lr.ph

.lr.ph:                                           ; preds = %6, %.lr.ph.i
  %.069.i10 = phi ptr [ %8, %.lr.ph.i ], [ @tlsext_types, %6 ]
  %8 = getelementptr inbounds nuw i8, ptr %.069.i10, i64 16
  %9 = load ptr, ptr %8, align 8, !tbaa !16
  %.not.i = icmp eq ptr %9, null
  br i1 %.not.i, label %lookup.exit, label %.lr.ph.i, !llvm.loop !18

.lr.ph.i:                                         ; preds = %.lr.ph
  %10 = getelementptr inbounds nuw i8, ptr %.069.i10, i64 24
  %11 = load i32, ptr %10, align 8, !tbaa !20
  %12 = icmp eq i32 %11, %2
  br i1 %12, label %lookup.exit, label %.lr.ph, !llvm.loop !18

lookup.exit:                                      ; preds = %.lr.ph.i, %.lr.ph, %6
  %.0.i = phi ptr [ @.str.218, %6 ], [ @.str.72, %.lr.ph ], [ %9, %.lr.ph.i ]
  %.not = icmp eq i32 %1, 0
  %13 = select i1 %.not, ptr @.str.75, ptr @.str.74
  %14 = tail call i32 (ptr, ptr, ...) @BIO_printf(ptr noundef %5, ptr noundef nonnull @.str.73, ptr noundef nonnull %13, ptr noundef nonnull %.0.i, i32 noundef %2, i32 noundef %4) #6
  %15 = tail call i32 @BIO_dump(ptr noundef %5, ptr noundef %3, i32 noundef %4) #6
  %16 = tail call i64 @BIO_ctrl(ptr noundef %5, i32 noundef 11, i64 noundef 0, ptr noundef null) #6
  ret void
}